; Function Attrs: mustprogress null_pointer_is_valid sspstrong uwtable
define internal noundef range(i32 0, 2) i32 @_ZL19add_prefs_menu_itemP10preferencePv(ptr noundef %0, ptr noundef %1) #0 {
  %.not = icmp eq ptr %1, null
  br i1 %.not, label %4, label %3

3:                                                ; preds = %2
  tail call void @_ZN23ProtocolPreferencesMenu11addMenuItemEP10preference(ptr noundef nonnull align 8 dereferenceable_or_null(80) %1, ptr noundef %0)
  br label %4

4:                                                ; preds = %2, %3
  %.0 = phi i32 [ 0, %3 ], [ 1, %2 ]
  ret i32 %.0
}